target datalayout = "e-m:e-p270:32:32-p271:32:32-p272:64:64-i64:64-i128:128-f80:128-n8:16:32:64-S128"
target triple = "x86_64-pc-linux-gnu"

@.str.30 = private unnamed_addr constant [22 x i8] c"Usage: %s [options]\0A\0A\00", align 1
@.str.31 = private unnamed_addr constant [10 x i8] c"Options:\0A\00", align 1
@.str.32 = private unnamed_addr constant [81 x i8] c"  -sname        Run only the suite with `name` (can go to individual test name)\0A\00", align 1
@.str.33 = private unnamed_addr constant [47 x i8] c"  -iname        Include the suite with `name`\0A\00", align 1
@.str.34 = private unnamed_addr constant [47 x i8] c"  -xname        Exclude the suite with `name`\0A\00", align 1
@.str.35 = private unnamed_addr constant [55 x i8] c"  -v            Increase verbosity (show suite names)\0A\00", align 1
@.str.36 = private unnamed_addr constant [53 x i8] c"  -q            Only report tests that had an error\0A\00", align 1
@.str.37 = private unnamed_addr constant [46 x i8] c"  -Q            Quit as soon as a test fails\0A\00", align 1
@.str.38 = private unnamed_addr constant [47 x i8] c"  -t            Display results in tap format\0A\00", align 1
@.str.39 = private unnamed_addr constant [35 x i8] c"  -l            Print suite names\0A\00", align 1
@.str.40 = private unnamed_addr constant [63 x i8] c"  -r[filename]  Write summary file (to the optional filename)\0A\00", align 1

; Function Attrs: nounwind uwtable
define internal void @clar_usage(ptr noundef %0) #0 {
  %2 = alloca ptr, align 8
  store ptr %0, ptr %2, align 8, !tbaa !20
  %3 = load ptr, ptr %2, align 8, !tbaa !20
  %4 = call i32 (ptr, ...) @printf(ptr noundef @.str.30, ptr noundef %3)
  %5 = call i32 (ptr, ...) @printf(ptr noundef @.str.31)
  %6 = call i32 (ptr, ...) @printf(ptr noundef @.str.32)
  %7 = call i32 (ptr, ...) @printf(ptr noundef @.str.33)
  %8 = call i32 (ptr, ...) @printf(ptr noundef @.str.34)
  %9 = call i32 (ptr, ...) @printf(ptr noundef @.str.35)
  %10 = call i32 (ptr, ...) @printf(ptr noundef @.str.36)
  %11 = call i32 (ptr, ...) @printf(ptr noundef @.str.37)
  %12 = call i32 (ptr, ...) @printf(ptr noundef @.str.38)
  %13 = call i32 (ptr, ...) @printf(ptr noundef @.str.39)
  %14 = call i32 (ptr, ...) @printf(ptr noundef @.str.40)
  call void @exit(i32 noundef -1) #16
  unreachable
}