; Function Attrs: cold nofree noreturn nounwind uwtable
define internal fastcc void @clar_usage(ptr noundef %0) unnamed_addr #5 {
  %2 = tail call i32 (ptr, ...) @printf(ptr noundef nonnull dereferenceable(1) @.str.30, ptr noundef %0)
  %puts = tail call i32 @puts(ptr nonnull dereferenceable(1) @str.1)
  %puts1 = tail call i32 @puts(ptr nonnull dereferenceable(1) @str.2)
  %puts2 = tail call i32 @puts(ptr nonnull dereferenceable(1) @str.3)
  %puts3 = tail call i32 @puts(ptr nonnull dereferenceable(1) @str.4)
  %puts4 = tail call i32 @puts(ptr nonnull dereferenceable(1) @str.5)
  %puts5 = tail call i32 @puts(ptr nonnull dereferenceable(1) @str.6)
  %puts6 = tail call i32 @puts(ptr nonnull dereferenceable(1) @str.7)
  %puts7 = tail call i32 @puts(ptr nonnull dereferenceable(1) @str.8)
  %puts8 = tail call i32 @puts(ptr nonnull dereferenceable(1) @str.9)
  %puts9 = tail call i32 @puts(ptr nonnull dereferenceable(1) @str.10)
  tail call void @exit(i32 noundef -1) #34
  unreachable
}